; Function Attrs: nounwind uwtable
define zeroext i8 @l___private_Lean_Meta_WHNF_0__Lean_Meta_isWFRec(ptr noundef %0) local_unnamed_addr #1 {
  %2 = load ptr, ptr @l___private_Lean_Meta_WHNF_0__Lean_Meta_isWFRec___closed__3, align 8, !tbaa !12
  %3 = tail call zeroext i8 @lean_name_eq(ptr noundef %0, ptr noundef %2) #5
  %4 = icmp eq i8 %3, 0
  br i1 %4, label %5, label %8

5:                                                ; preds = %1
  %6 = load ptr, ptr @l___private_Lean_Meta_WHNF_0__Lean_Meta_isWFRec___closed__5, align 8, !tbaa !12
  %7 = tail call zeroext i8 @lean_name_eq(ptr noundef %0, ptr noundef %6) #5
  br label %8

8:                                                ; preds = %1, %5
  %.0 = phi i8 [ %7, %5 ], [ 1, %1 ]
  ret i8 %.0
}